; Function Attrs: inlinehint mustprogress nounwind uwtable
define internal fastcc void @_ZSt8_DestroyIPN7rocksdb12_GLOBAL__N_18Repairer9TableInfoES3_EvT_S5_RSaIT0_E(ptr noundef readonly %0, ptr noundef readnone %1) unnamed_addr #7 personality ptr @__gxx_personality_v0 {
  %.not4.i.i = icmp eq ptr %0, %1
  br i1 %.not4.i.i, label %_ZSt8_DestroyIPN7rocksdb12_GLOBAL__N_18Repairer9TableInfoEEvT_S5_.exit, label %.lr.ph.i.i

.lr.ph.i.i:                                       ; preds = %2, %_ZSt8_DestroyIN7rocksdb12_GLOBAL__N_18Repairer9TableInfoEEvPT_.exit.i.i
  %.05.i.i = phi ptr [ %48, %_ZSt8_DestroyIN7rocksdb12_GLOBAL__N_18Repairer9TableInfoEEvPT_.exit.i.i ], [ %0, %2 ]
  %3 = getelementptr inbounds nuw i8, ptr %.05.i.i, i64 320
  %4 = load ptr, ptr %3, align 8, !tbaa !25
  %5 = getelementptr inbounds nuw i8, ptr %.05.i.i, i64 336
  %6 = icmp eq ptr %4, %5
  br i1 %6, label %_ZNKSt7__cxx1112basic_stringIcSt11char_traitsIcESaIcEE11_M_is_localEv.exit.thread.i.i.i.i.i.i, label %_ZNKSt7__cxx1112basic_stringIcSt11char_traitsIcESaIcEE11_M_is_localEv.exit.i.i.i.i.i.i

_ZNKSt7__cxx1112basic_stringIcSt11char_traitsIcESaIcEE11_M_is_localEv.exit.thread.i.i.i.i.i.i: ; preds = %.lr.ph.i.i
  %7 = getelementptr inbounds nuw i8, ptr %.05.i.i, i64 328
  %8 = load i64, ptr %7, align 8, !tbaa !28
  %9 = icmp ult i64 %8, 16
  tail call void @llvm.assume(i1 %9)
  br label %_ZNSt7__cxx1112basic_stringIcSt11char_traitsIcESaIcEED2Ev.exit.i.i.i.i

_ZNKSt7__cxx1112basic_stringIcSt11char_traitsIcESaIcEE11_M_is_localEv.exit.i.i.i.i.i.i: ; preds = %.lr.ph.i.i
  %10 = load i64, ptr %5, align 8, !tbaa !29
  %11 = add i64 %10, 1
  tail call void @_ZdlPvm(ptr noundef %4, i64 noundef %11) #27
  br label %_ZNSt7__cxx1112basic_stringIcSt11char_traitsIcESaIcEED2Ev.exit.i.i.i.i

_ZNSt7__cxx1112basic_stringIcSt11char_traitsIcESaIcEED2Ev.exit.i.i.i.i: ; preds = %_ZNKSt7__cxx1112basic_stringIcSt11char_traitsIcESaIcEE11_M_is_localEv.exit.i.i.i.i.i.i, %_ZNKSt7__cxx1112basic_stringIcSt11char_traitsIcESaIcEE11_M_is_localEv.exit.thread.i.i.i.i.i.i
  %12 = getelementptr inbounds nuw i8, ptr %.05.i.i, i64 248
  %13 = load ptr, ptr %12, align 8, !tbaa !25
  %14 = getelementptr inbounds nuw i8, ptr %.05.i.i, i64 264
  %15 = icmp eq ptr %13, %14
  br i1 %15, label %_ZNKSt7__cxx1112basic_stringIcSt11char_traitsIcESaIcEE11_M_is_localEv.exit.thread.i.i.i.i.i.i.i, label %_ZNKSt7__cxx1112basic_stringIcSt11char_traitsIcESaIcEE11_M_is_localEv.exit.i.i.i.i.i.i.i

_ZNKSt7__cxx1112basic_stringIcSt11char_traitsIcESaIcEE11_M_is_localEv.exit.thread.i.i.i.i.i.i.i: ; preds = %_ZNSt7__cxx1112basic_stringIcSt11char_traitsIcESaIcEED2Ev.exit.i.i.i.i
  %16 = getelementptr inbounds nuw i8, ptr %.05.i.i, i64 256
  %17 = load i64, ptr %16, align 8, !tbaa !28
  %18 = icmp ult i64 %17, 16
  tail call void @llvm.assume(i1 %18)
  br label %_ZNSt7__cxx1112basic_stringIcSt11char_traitsIcESaIcEED2Ev.exit.i.i.i.i.i

_ZNKSt7__cxx1112basic_stringIcSt11char_traitsIcESaIcEE11_M_is_localEv.exit.i.i.i.i.i.i.i: ; preds = %_ZNSt7__cxx1112basic_stringIcSt11char_traitsIcESaIcEED2Ev.exit.i.i.i.i
  %19 = load i64, ptr %14, align 8, !tbaa !29
  %20 = add i64 %19, 1
  tail call void @_ZdlPvm(ptr noundef %13, i64 noundef %20) #27
  br label %_ZNSt7__cxx1112basic_stringIcSt11char_traitsIcESaIcEED2Ev.exit.i.i.i.i.i

_ZNSt7__cxx1112basic_stringIcSt11char_traitsIcESaIcEED2Ev.exit.i.i.i.i.i: ; preds = %_ZNKSt7__cxx1112basic_stringIcSt11char_traitsIcESaIcEE11_M_is_localEv.exit.i.i.i.i.i.i.i, %_ZNKSt7__cxx1112basic_stringIcSt11char_traitsIcESaIcEE11_M_is_localEv.exit.thread.i.i.i.i.i.i.i
  %21 = getelementptr inbounds nuw i8, ptr %.05.i.i, i64 216
  %22 = load ptr, ptr %21, align 8, !tbaa !25
  %23 = getelementptr inbounds nuw i8, ptr %.05.i.i, i64 232
  %24 = icmp eq ptr %22, %23
  br i1 %24, label %_ZNKSt7__cxx1112basic_stringIcSt11char_traitsIcESaIcEE11_M_is_localEv.exit.thread.i.i2.i.i.i.i.i, label %_ZNKSt7__cxx1112basic_stringIcSt11char_traitsIcESaIcEE11_M_is_localEv.exit.i.i1.i.i.i.i.i

_ZNKSt7__cxx1112basic_stringIcSt11char_traitsIcESaIcEE11_M_is_localEv.exit.thread.i.i2.i.i.i.i.i: ; preds = %_ZNSt7__cxx1112basic_stringIcSt11char_traitsIcESaIcEED2Ev.exit.i.i.i.i.i
  %25 = getelementptr inbounds nuw i8, ptr %.05.i.i, i64 224
  %26 = load i64, ptr %25, align 8, !tbaa !28
  %27 = icmp ult i64 %26, 16
  tail call void @llvm.assume(i1 %27)
  br label %_ZNSt7__cxx1112basic_stringIcSt11char_traitsIcESaIcEED2Ev.exit3.i.i.i.i.i

_ZNKSt7__cxx1112basic_stringIcSt11char_traitsIcESaIcEE11_M_is_localEv.exit.i.i1.i.i.i.i.i: ; preds = %_ZNSt7__cxx1112basic_stringIcSt11char_traitsIcESaIcEED2Ev.exit.i.i.i.i.i
  %28 = load i64, ptr %23, align 8, !tbaa !29
  %29 = add i64 %28, 1
  tail call void @_ZdlPvm(ptr noundef %22, i64 noundef %29) #27
  br label %_ZNSt7__cxx1112basic_stringIcSt11char_traitsIcESaIcEED2Ev.exit3.i.i.i.i.i

_ZNSt7__cxx1112basic_stringIcSt11char_traitsIcESaIcEED2Ev.exit3.i.i.i.i.i: ; preds = %_ZNKSt7__cxx1112basic_stringIcSt11char_traitsIcESaIcEE11_M_is_localEv.exit.i.i1.i.i.i.i.i, %_ZNKSt7__cxx1112basic_stringIcSt11char_traitsIcESaIcEE11_M_is_localEv.exit.thread.i.i2.i.i.i.i.i
  %30 = getelementptr inbounds nuw i8, ptr %.05.i.i, i64 72
  %31 = load ptr, ptr %30, align 8, !tbaa !25
  %32 = getelementptr inbounds nuw i8, ptr %.05.i.i, i64 88
  %33 = icmp eq ptr %31, %32
  br i1 %33, label %_ZNKSt7__cxx1112basic_stringIcSt11char_traitsIcESaIcEE11_M_is_localEv.exit.thread.i.i.i.i.i.i.i.i, label %_ZNKSt7__cxx1112basic_stringIcSt11char_traitsIcESaIcEE11_M_is_localEv.exit.i.i.i.i.i.i.i.i

_ZNKSt7__cxx1112basic_stringIcSt11char_traitsIcESaIcEE11_M_is_localEv.exit.thread.i.i.i.i.i.i.i.i: ; preds = %_ZNSt7__cxx1112basic_stringIcSt11char_traitsIcESaIcEED2Ev.exit3.i.i.i.i.i
  %34 = getelementptr inbounds nuw i8, ptr %.05.i.i, i64 80
  %35 = load i64, ptr %34, align 8, !tbaa !28
  %36 = icmp ult i64 %35, 16
  tail call void @llvm.assume(i1 %36)
  br label %_ZN7rocksdb11InternalKeyD2Ev.exit.i.i.i.i.i

_ZNKSt7__cxx1112basic_stringIcSt11char_traitsIcESaIcEE11_M_is_localEv.exit.i.i.i.i.i.i.i.i: ; preds = %_ZNSt7__cxx1112basic_stringIcSt11char_traitsIcESaIcEED2Ev.exit3.i.i.i.i.i
  %37 = load i64, ptr %32, align 8, !tbaa !29
  %38 = add i64 %37, 1
  tail call void @_ZdlPvm(ptr noundef %31, i64 noundef %38) #27
  br label %_ZN7rocksdb11InternalKeyD2Ev.exit.i.i.i.i.i

_ZN7rocksdb11InternalKeyD2Ev.exit.i.i.i.i.i:      ; preds = %_ZNKSt7__cxx1112basic_stringIcSt11char_traitsIcESaIcEE11_M_is_localEv.exit.i.i.i.i.i.i.i.i, %_ZNKSt7__cxx1112basic_stringIcSt11char_traitsIcESaIcEE11_M_is_localEv.exit.thread.i.i.i.i.i.i.i.i
  %39 = getelementptr inbounds nuw i8, ptr %.05.i.i, i64 40
  %40 = load ptr, ptr %39, align 8, !tbaa !25
  %41 = getelementptr inbounds nuw i8, ptr %.05.i.i, i64 56
  %42 = icmp eq ptr %40, %41
  br i1 %42, label %_ZNKSt7__cxx1112basic_stringIcSt11char_traitsIcESaIcEE11_M_is_localEv.exit.thread.i.i.i5.i.i.i.i.i, label %_ZNKSt7__cxx1112basic_stringIcSt11char_traitsIcESaIcEE11_M_is_localEv.exit.i.i.i4.i.i.i.i.i

_ZNKSt7__cxx1112basic_stringIcSt11char_traitsIcESaIcEE11_M_is_localEv.exit.thread.i.i.i5.i.i.i.i.i: ; preds = %_ZN7rocksdb11InternalKeyD2Ev.exit.i.i.i.i.i
  %43 = getelementptr inbounds nuw i8, ptr %.05.i.i, i64 48
  %44 = load i64, ptr %43, align 8, !tbaa !28
  %45 = icmp ult i64 %44, 16
  tail call void @llvm.assume(i1 %45)
  br label %_ZSt8_DestroyIN7rocksdb12_GLOBAL__N_18Repairer9TableInfoEEvPT_.exit.i.i

_ZNKSt7__cxx1112basic_stringIcSt11char_traitsIcESaIcEE11_M_is_localEv.exit.i.i.i4.i.i.i.i.i: ; preds = %_ZN7rocksdb11InternalKeyD2Ev.exit.i.i.i.i.i
  %46 = load i64, ptr %41, align 8, !tbaa !29
  %47 = add i64 %46, 1
  tail call void @_ZdlPvm(ptr noundef %40, i64 noundef %47) #27
  br label %_ZSt8_DestroyIN7rocksdb12_GLOBAL__N_18Repairer9TableInfoEEvPT_.exit.i.i

_ZSt8_DestroyIN7rocksdb12_GLOBAL__N_18Repairer9TableInfoEEvPT_.exit.i.i: ; preds = %_ZNKSt7__cxx1112basic_stringIcSt11char_traitsIcESaIcEE11_M_is_localEv.exit.i.i.i4.i.i.i.i.i, %_ZNKSt7__cxx1112basic_stringIcSt11char_traitsIcESaIcEE11_M_is_localEv.exit.thread.i.i.i5.i.i.i.i.i
  %48 = getelementptr inbounds nuw i8, ptr %.05.i.i, i64 352
  %.not.i.i = icmp eq ptr %48, %1
  br i1 %.not.i.i, label %_ZSt8_DestroyIPN7rocksdb12_GLOBAL__N_18Repairer9TableInfoEEvT_S5_.exit, label %.lr.ph.i.i, !llvm.loop !955

_ZSt8_DestroyIPN7rocksdb12_GLOBAL__N_18Repairer9TableInfoEEvT_S5_.exit: ; preds = %_ZSt8_DestroyIN7rocksdb12_GLOBAL__N_18Repairer9TableInfoEEvPT_.exit.i.i, %2
  ret void
}